target datalayout = "e-m:e-p270:32:32-p271:32:32-p272:64:64-i64:64-i128:128-f80:128-n8:16:32:64-S128"
target triple = "x86_64-pc-linux-gnu"

@proto_register_ieee80211_radio.ett = internal global [5 x ptr] [ptr @ett_wlan_radio, ptr @ett_wlan_radio_11ac_user, ptr @ett_wlan_radio_duration, ptr @ett_wlan_radio_aggregate, ptr @ett_wlan_radio_11be_user], align 16
@.str.137 = private unnamed_addr constant [25 x i8] c"802.11 radio information\00", align 1
@.str.138 = private unnamed_addr constant [13 x i8] c"802.11 Radio\00", align 1
@.str.139 = private unnamed_addr constant [11 x i8] c"wlan_radio\00", align 1
@proto_wlan_radio = internal global i32 0, align 4
@wlan_radio_handle = internal global ptr null, align 8
@.str.140 = private unnamed_addr constant [17 x i8] c"wlan_noqos_radio\00", align 1
@wlan_noqos_radio_handle = internal global ptr null, align 8
@.str.141 = private unnamed_addr constant [22 x i8] c"always_short_preamble\00", align 1
@.str.142 = private unnamed_addr constant [43 x i8] c"802.11/11b preamble length is always short\00", align 1
@.str.143 = private unnamed_addr constant [144 x i8] c"Some generators incorrectly indicate long preamble when the preamble was actuallyshort. Always assume short preamble when calculating duration.\00", align 1
@wlan_radio_always_short_preamble = internal global i8 0, align 1
@.str.144 = private unnamed_addr constant [11 x i8] c"tsf_at_end\00", align 1
@.str.145 = private unnamed_addr constant [34 x i8] c"TSF indicates the end of the PPDU\00", align 1
@.str.146 = private unnamed_addr constant [84 x i8] c"Some generators timestamp the end of the PPDU rather than the start of the (A)MPDU.\00", align 1
@wlan_radio_tsf_at_end = internal global i8 1, align 1
@.str.147 = private unnamed_addr constant [9 x i8] c"timeline\00", align 1
@.str.148 = private unnamed_addr constant [40 x i8] c"Enable Wireless Timeline (experimental)\00", align 1
@.str.149 = private unnamed_addr constant [59 x i8] c"Enables an additional panel for navigating through packets\00", align 1
@wlan_radio_timeline_enabled = internal global i8 0, align 1
@wlan_radio_tap = internal global i32 0, align 4
@.str.150 = private unnamed_addr constant [20 x i8] c"wlan_radio_timeline\00", align 1
@wlan_radio_timeline_tap = internal global i32 0, align 4

; Function Attrs: null_pointer_is_valid sspstrong uwtable
define hidden void @proto_register_ieee80211_radio() #1 {
  %1 = alloca ptr, align 8
  %2 = alloca ptr, align 8
  call void @llvm.lifetime.start.p0(i64 8, ptr %1) #10
  call void @llvm.lifetime.start.p0(i64 8, ptr %2) #10
  %3 = call i32 @proto_register_protocol(ptr noundef @.str.137, ptr noundef @.str.138, ptr noundef @.str.139)
  store i32 %3, ptr @proto_wlan_radio, align 4
  %4 = load i32, ptr @proto_wlan_radio, align 4
  call void @proto_register_field_array(i32 noundef %4, ptr noundef @proto_register_ieee80211_radio.hf_wlan_radio, i32 noundef 55)
  call void @proto_register_subtree_array(ptr noundef @proto_register_ieee80211_radio.ett, i32 noundef 5)
  %5 = load i32, ptr @proto_wlan_radio, align 4
  %6 = call ptr @expert_register_protocol(i32 noundef %5)
  store ptr %6, ptr %2, align 8
  %7 = load ptr, ptr %2, align 8
  call void @expert_register_field_array(ptr noundef %7, ptr noundef @proto_register_ieee80211_radio.ei, i32 noundef 6)
  %8 = load i32, ptr @proto_wlan_radio, align 4
  %9 = call ptr @register_dissector(ptr noundef @.str.139, ptr noundef @dissect_wlan_radio, i32 noundef %8)
  store ptr %9, ptr @wlan_radio_handle, align 8
  %10 = load i32, ptr @proto_wlan_radio, align 4
  %11 = call ptr @register_dissector(ptr noundef @.str.140, ptr noundef @dissect_wlan_noqos_radio, i32 noundef %10)
  store ptr %11, ptr @wlan_noqos_radio_handle, align 8
  %12 = load i32, ptr @proto_wlan_radio, align 4
  %13 = call ptr @prefs_register_protocol(i32 noundef %12, ptr noundef null)
  store ptr %13, ptr %1, align 8
  %14 = load ptr, ptr %1, align 8
  call void @prefs_register_bool_preference(ptr noundef %14, ptr noundef @.str.141, ptr noundef @.str.142, ptr noundef @.str.143, ptr noundef @wlan_radio_always_short_preamble)
  %15 = load ptr, ptr %1, align 8
  call void @prefs_register_bool_preference(ptr noundef %15, ptr noundef @.str.144, ptr noundef @.str.145, ptr noundef @.str.146, ptr noundef @wlan_radio_tsf_at_end)
  %16 = load ptr, ptr %1, align 8
  call void @prefs_register_bool_preference(ptr noundef %16, ptr noundef @.str.147, ptr noundef @.str.148, ptr noundef @.str.149, ptr noundef @wlan_radio_timeline_enabled)
  call void @register_init_routine(ptr noundef @setup_ieee80211_radio)
  call void @register_cleanup_routine(ptr noundef @cleanup_ieee80211_radio)
  %17 = call i32 @register_tap(ptr noundef @.str.139)
  store i32 %17, ptr @wlan_radio_tap, align 4
  %18 = call i32 @register_tap(ptr noundef @.str.150)
  store i32 %18, ptr @wlan_radio_timeline_tap, align 4
  call void @llvm.lifetime.end.p0(i64 8, ptr %2) #10
  call void @llvm.lifetime.end.p0(i64 8, ptr %1) #10
  ret void
}