; Function Attrs: null_pointer_is_valid sspstrong uwtable
define hidden void @proto_register_ieee80211_radio() local_unnamed_addr #1 {
  %1 = tail call i32 @proto_register_protocol(ptr noundef nonnull @.str.137, ptr noundef nonnull @.str.138, ptr noundef nonnull @.str.139)
  store i32 %1, ptr @proto_wlan_radio, align 4
  tail call void @proto_register_field_array(i32 noundef %1, ptr noundef nonnull @proto_register_ieee80211_radio.hf_wlan_radio, i32 noundef 55)
  tail call void @proto_register_subtree_array(ptr noundef nonnull @proto_register_ieee80211_radio.ett, i32 noundef 5)
  %2 = load i32, ptr @proto_wlan_radio, align 4
  %3 = tail call ptr @expert_register_protocol(i32 noundef %2)
  tail call void @expert_register_field_array(ptr noundef %3, ptr noundef nonnull @proto_register_ieee80211_radio.ei, i32 noundef 6)
  %4 = load i32, ptr @proto_wlan_radio, align 4
  %5 = tail call ptr @register_dissector(ptr noundef nonnull @.str.139, ptr noundef nonnull @dissect_wlan_radio, i32 noundef %4)
  store ptr %5, ptr @wlan_radio_handle, align 8
  %6 = load i32, ptr @proto_wlan_radio, align 4
  %7 = tail call ptr @register_dissector(ptr noundef nonnull @.str.140, ptr noundef nonnull @dissect_wlan_noqos_radio, i32 noundef %6)
  store ptr %7, ptr @wlan_noqos_radio_handle, align 8
  %8 = load i32, ptr @proto_wlan_radio, align 4
  %9 = tail call ptr @prefs_register_protocol(i32 noundef %8, ptr noundef null)
  tail call void @prefs_register_bool_preference(ptr noundef %9, ptr noundef nonnull @.str.141, ptr noundef nonnull @.str.142, ptr noundef nonnull @.str.143, ptr noundef nonnull @wlan_radio_always_short_preamble)
  tail call void @prefs_register_bool_preference(ptr noundef %9, ptr noundef nonnull @.str.144, ptr noundef nonnull @.str.145, ptr noundef nonnull @.str.146, ptr noundef nonnull @wlan_radio_tsf_at_end)
  tail call void @prefs_register_bool_preference(ptr noundef %9, ptr noundef nonnull @.str.147, ptr noundef nonnull @.str.148, ptr noundef nonnull @.str.149, ptr noundef nonnull @wlan_radio_timeline_enabled)
  tail call void @register_init_routine(ptr noundef nonnull @setup_ieee80211_radio)
  tail call void @register_cleanup_routine(ptr noundef nonnull @cleanup_ieee80211_radio)
  %10 = tail call i32 @register_tap(ptr noundef nonnull @.str.139)
  store i32 %10, ptr @wlan_radio_tap, align 4
  %11 = tail call i32 @register_tap(ptr noundef nonnull @.str.150)
  store i32 %11, ptr @wlan_radio_timeline_tap, align 4
  ret void
}